; ModuleID = '30/3189.c'
source_filename = "30/3189.c"
target datalayout = "e-m:e-p270:32:32-p271:32:32-p272:64:64-i64:64-f80:128-n8:16:32:64-S128"
target triple = "x86_64-pc-linux-gnu"

@.str = private unnamed_addr constant [3 x i8] c"%d\00", align 1
@.str.1 = private unnamed_addr constant [5 x i8] c"%ld\0A\00", align 1

; Function Attrs: noinline nounwind uwtable
define dso_local i32 @main() #0 {
  %1 = alloca i32, align 4
  %2 = alloca i32, align 4
  %3 = alloca i32, align 4
  %4 = alloca i64, align 8
  store i32 0, i32* %1, align 4
  store i64 0, i64* %4, align 8
  %5 = call i32 (i8*, ...) @__isoc99_scanf(i8* getelementptr inbounds ([3 x i8], [3 x i8]* @.str, i64 0, i64 0), i32* %2)
  store i32 1, i32* %3, align 4
  br label %6

6:                                                ; preds = %26, %0
  %7 = load i32, i32* %3, align 4
  %8 = load i32, i32* %2, align 4
  %9 = icmp sle i32 %7, %8
  br i1 %9, label %10, label %29

10:                                               ; preds = %6
  %11 = load i32, i32* %3, align 4
  %12 = srem i32 %11, 7
  %13 = icmp ne i32 %12, 0
  br i1 %13, label %14, label %25

14:                                               ; preds = %10
  %15 = load i32, i32* %3, align 4
  %16 = call i32 @judge(i32 %15)
  %17 = icmp eq i32 %16, 0
  br i1 %17, label %18, label %25

18:                                               ; preds = %14
  %19 = load i32, i32* %3, align 4
  %20 = load i32, i32* %3, align 4
  %21 = mul nsw i32 %19, %20
  %22 = sext i32 %21 to i64
  %23 = load i64, i64* %4, align 8
  %24 = add i64 %23, %22
  store i64 %24, i64* %4, align 8
  br label %25

25:                                               ; preds = %18, %14, %10
  br label %26

26:                                               ; preds = %25
  %27 = load i32, i32* %3, align 4
  %28 = add nsw i32 %27, 1
  store i32 %28, i32* %3, align 4
  br label %6

29:                                               ; preds = %6
  %30 = load i64, i64* %4, align 8
  %31 = call i32 (i8*, ...) @printf(i8* getelementptr inbounds ([5 x i8], [5 x i8]* @.str.1, i64 0, i64 0), i64 %30)
  ret i32 0
}

declare dso_local i32 @__isoc99_scanf(i8*, ...) #1

; Function Attrs: noinline nounwind uwtable
define dso_local i32 @judge(i32 %0) #0 {
  %2 = alloca i32, align 4
  %3 = alloca i32, align 4
  %4 = alloca i32, align 4
  store i32 %0, i32* %3, align 4
  %5 = load i32, i32* %3, align 4
  %6 = icmp sge i32 %5, 10
  br i1 %6, label %7, label %21

7:                                                ; preds = %1
  br label %8

8:                                                ; preds = %17, %7
  %9 = load i32, i32* %3, align 4
  %10 = srem i32 %9, 10
  store i32 %10, i32* %4, align 4
  %11 = load i32, i32* %4, align 4
  %12 = icmp eq i32 %11, 7
  br i1 %12, label %13, label %14

13:                                               ; preds = %8
  store i32 1, i32* %2, align 4
  br label %26

14:                                               ; preds = %8
  %15 = load i32, i32* %3, align 4
  %16 = sdiv i32 %15, 10
  store i32 %16, i32* %3, align 4
  br label %17

17:                                               ; preds = %14
  %18 = load i32, i32* %3, align 4
  %19 = icmp sge i32 %18, 10
  br i1 %19, label %8, label %20

20:                                               ; preds = %17
  br label %21

21:                                               ; preds = %20, %1
  %22 = load i32, i32* %3, align 4
  %23 = icmp eq i32 %22, 7
  br i1 %23, label %24, label %25

24:                                               ; preds = %21
  store i32 1, i32* %2, align 4
  br label %26

25:                                               ; preds = %21
  store i32 0, i32* %2, align 4
  br label %26

26:                                               ; preds = %25, %24, %13
  %27 = load i32, i32* %2, align 4
  ret i32 %27
}

declare dso_local i32 @printf(i8*, ...) #1


!llvm.module.flags = !{!0}
!llvm.ident = !{!1}

!0 = !{i32 1, !"wchar_size", i32 4}
!1 = !{!"clang version 10.0.0-4ubuntu1 "}
